target datalayout = "e-m:e-p270:32:32-p271:32:32-p272:64:64-i64:64-i128:128-f80:128-n8:16:32:64-S128"
target triple = "x86_64-pc-linux-gnu"

; Function Attrs: alwaysinline nounwind willreturn memory(none) uwtable
define internal float @av_clipf_c(float noundef %0, float noundef %1, float noundef %2) #7 {
  %4 = alloca float, align 4
  %5 = alloca float, align 4
  %6 = alloca float, align 4
  store float %0, ptr %4, align 4, !tbaa !56
  store float %1, ptr %5, align 4, !tbaa !56
  store float %2, ptr %6, align 4, !tbaa !56
  %7 = load float, ptr %4, align 4, !tbaa !56
  %8 = load float, ptr %5, align 4, !tbaa !56
  %9 = fcmp nsz ogt float %7, %8
  br i1 %9, label %10, label %12

10:                                               ; preds = %3
  %11 = load float, ptr %4, align 4, !tbaa !56
  br label %14

12:                                               ; preds = %3
  %13 = load float, ptr %5, align 4, !tbaa !56
  br label %14

14:                                               ; preds = %12, %10
  %15 = phi nsz float [ %11, %10 ], [ %13, %12 ]
  %16 = load float, ptr %6, align 4, !tbaa !56
  %17 = fcmp nsz ogt float %15, %16
  br i1 %17, label %18, label %20

18:                                               ; preds = %14
  %19 = load float, ptr %6, align 4, !tbaa !56
  br label %30

20:                                               ; preds = %14
  %21 = load float, ptr %4, align 4, !tbaa !56
  %22 = load float, ptr %5, align 4, !tbaa !56
  %23 = fcmp nsz ogt float %21, %22
  br i1 %23, label %24, label %26

24:                                               ; preds = %20
  %25 = load float, ptr %4, align 4, !tbaa !56
  br label %28

26:                                               ; preds = %20
  %27 = load float, ptr %5, align 4, !tbaa !56
  br label %28

28:                                               ; preds = %26, %24
  %29 = phi nsz float [ %25, %24 ], [ %27, %26 ]
  br label %30

30:                                               ; preds = %28, %18
  %31 = phi nsz float [ %19, %18 ], [ %29, %28 ]
  ret float %31
}

; Function Attrs: nounwind uwtable
define internal void @postscale_c(ptr noundef %0, i32 noundef %1, float noundef %2, float noundef %3, float noundef %4) #2 {
  %6 = alloca ptr, align 8
  %7 = alloca i32, align 4
  %8 = alloca float, align 4
  %9 = alloca float, align 4
  %10 = alloca float, align 4
  %11 = alloca i32, align 4
  store ptr %0, ptr %6, align 8, !tbaa !48
  store i32 %1, ptr %7, align 4, !tbaa !45
  store float %2, ptr %8, align 4, !tbaa !56
  store float %3, ptr %9, align 4, !tbaa !56
  store float %4, ptr %10, align 4, !tbaa !56
  call void @llvm.lifetime.start.p0(i64 4, ptr %11) #8
  store i32 0, ptr %11, align 4, !tbaa !45
  br label %12

12:                                               ; preds = %37, %5
  %13 = load i32, ptr %11, align 4, !tbaa !45
  %14 = load i32, ptr %7, align 4, !tbaa !45
  %15 = icmp slt i32 %13, %14
  br i1 %15, label %17, label %16

16:                                               ; preds = %12
  call void @llvm.lifetime.end.p0(i64 4, ptr %11) #8
  br label %40

17:                                               ; preds = %12
  %18 = load float, ptr %8, align 4, !tbaa !56
  %19 = load ptr, ptr %6, align 8, !tbaa !48
  %20 = load i32, ptr %11, align 4, !tbaa !45
  %21 = sext i32 %20 to i64
  %22 = getelementptr inbounds float, ptr %19, i64 %21
  %23 = load float, ptr %22, align 4, !tbaa !56
  %24 = fmul nsz float %23, %18
  store float %24, ptr %22, align 4, !tbaa !56
  %25 = load ptr, ptr %6, align 8, !tbaa !48
  %26 = load i32, ptr %11, align 4, !tbaa !45
  %27 = sext i32 %26 to i64
  %28 = getelementptr inbounds float, ptr %25, i64 %27
  %29 = load float, ptr %28, align 4, !tbaa !56
  %30 = load float, ptr %9, align 4, !tbaa !56
  %31 = load float, ptr %10, align 4, !tbaa !56
  %32 = call nsz float @av_clipf_c(float noundef %29, float noundef %30, float noundef %31) #11
  %33 = load ptr, ptr %6, align 8, !tbaa !48
  %34 = load i32, ptr %11, align 4, !tbaa !45
  %35 = sext i32 %34 to i64
  %36 = getelementptr inbounds float, ptr %33, i64 %35
  store float %32, ptr %36, align 4, !tbaa !56
  br label %37

37:                                               ; preds = %17
  %38 = load i32, ptr %11, align 4, !tbaa !45
  %39 = add nsw i32 %38, 1
  store i32 %39, ptr %11, align 4, !tbaa !45
  br label %12, !llvm.loop !102

40:                                               ; preds = %16
  ret void
}