; Function Attrs: nofree norecurse nosync nounwind memory(argmem: readwrite) uwtable
define internal void @postscale_c(ptr noundef captures(none) %0, i32 noundef %1, float noundef %2, float noundef %3, float noundef %4) #6 {
  %6 = icmp sgt i32 %1, 0
  br i1 %6, label %.lr.ph.preheader, label %._crit_edge

.lr.ph.preheader:                                 ; preds = %5
  %wide.trip.count = zext nneg i32 %1 to i64
  br label %.lr.ph

._crit_edge:                                      ; preds = %.lr.ph, %5
  ret void

.lr.ph:                                           ; preds = %.lr.ph.preheader, %.lr.ph
  %indvars.iv = phi i64 [ 0, %.lr.ph.preheader ], [ %indvars.iv.next, %.lr.ph ]
  %7 = getelementptr inbounds nuw float, ptr %0, i64 %indvars.iv
  %8 = load float, ptr %7, align 4, !tbaa !39
  %9 = fmul nsz float %2, %8
  %10 = fcmp nsz ogt float %9, %3
  %11 = select nsz i1 %10, float %9, float %3
  %12 = fcmp nsz ogt float %11, %4
  %..i = select nsz i1 %12, float %4, float %11
  store float %..i, ptr %7, align 4, !tbaa !39
  %indvars.iv.next = add nuw nsw i64 %indvars.iv, 1
  %exitcond.not = icmp eq i64 %indvars.iv.next, %wide.trip.count
  br i1 %exitcond.not, label %._crit_edge, label %.lr.ph, !llvm.loop !89
}